target datalayout = "e-m:e-p270:32:32-p271:32:32-p272:64:64-i64:64-i128:128-f80:128-n8:16:32:64-S128"
target triple = "x86_64-pc-linux-gnu"

; Function Attrs: mustprogress nounwind uwtable
define dso_local noundef zeroext i1 @_ZNK5clang4Decl15hasDefiningAttrEv(ptr noundef nonnull align 8 dereferenceable(33) %0) #0 align 2 {
  %2 = alloca ptr, align 8
  store ptr %0, ptr %2, align 8
  %3 = load ptr, ptr %2, align 8
  %4 = call noundef zeroext i1 @_ZNK5clang4Decl7hasAttrINS_9AliasAttrEEEbv(ptr noundef nonnull align 8 dereferenceable(33) %3)
  br i1 %4, label %9, label %5

5:                                                ; preds = %1
  %6 = call noundef zeroext i1 @_ZNK5clang4Decl7hasAttrINS_9IFuncAttrEEEbv(ptr noundef nonnull align 8 dereferenceable(33) %3)
  br i1 %6, label %9, label %7

7:                                                ; preds = %5
  %8 = call noundef zeroext i1 @_ZNK5clang4Decl7hasAttrINS_23LoaderUninitializedAttrEEEbv(ptr noundef nonnull align 8 dereferenceable(33) %3)
  br label %9

9:                                                ; preds = %7, %5, %1
  %10 = phi i1 [ true, %5 ], [ true, %1 ], [ %8, %7 ]
  ret i1 %10
}