; Function Attrs: mustprogress nounwind uwtable
define dso_local noundef zeroext i1 @_ZNK5clang4Decl15hasDefiningAttrEv(ptr noundef nonnull align 8 dereferenceable(33) %0) local_unnamed_addr #0 align 2 {
  %2 = tail call noundef zeroext i1 @_ZNK5clang4Decl7hasAttrINS_9AliasAttrEEEbv(ptr noundef nonnull align 8 dereferenceable(33) %0)
  br i1 %2, label %7, label %3

3:                                                ; preds = %1
  %4 = tail call noundef zeroext i1 @_ZNK5clang4Decl7hasAttrINS_9IFuncAttrEEEbv(ptr noundef nonnull align 8 dereferenceable(33) %0)
  br i1 %4, label %7, label %5

5:                                                ; preds = %3
  %6 = tail call noundef zeroext i1 @_ZNK5clang4Decl7hasAttrINS_23LoaderUninitializedAttrEEEbv(ptr noundef nonnull align 8 dereferenceable(33) %0)
  br label %7

7:                                                ; preds = %5, %3, %1
  %8 = phi i1 [ true, %3 ], [ true, %1 ], [ %6, %5 ]
  ret i1 %8
}